; Function Attrs: null_pointer_is_valid sspstrong uwtable
define internal void @dissect_pcep_obj_proc_time(ptr noundef %0, ptr noundef %1, ptr noundef %2, i32 noundef %3, i32 noundef %4, i32 %5, i32 %6) #0 {
  %.not = icmp eq i32 %4, 28
  br i1 %.not, label %10, label %8

8:                                                ; preds = %7
  %9 = tail call ptr (ptr, ptr, ptr, ptr, i32, i32, ptr, ...) @proto_tree_add_expert_format(ptr noundef %0, ptr noundef %1, ptr noundef nonnull @ei_pcep_subobject_bad_length, ptr noundef %2, i32 noundef %3, i32 noundef %4, ptr noundef nonnull @.str.1396, i32 noundef %4, i32 noundef 28)
  br label %37

10:                                               ; preds = %7
  %11 = load i32, ptr @hf_pcep_obj_proc_time_reserved, align 4
  %12 = tail call ptr @proto_tree_add_item(ptr noundef %0, i32 noundef %11, ptr noundef %2, i32 noundef %3, i32 noundef 2, i32 noundef 0)
  %13 = load i32, ptr @hf_pcep_obj_proc_time_flags, align 4
  %14 = add i32 %3, 2
  %15 = tail call ptr @proto_tree_add_item(ptr noundef %0, i32 noundef %13, ptr noundef %2, i32 noundef %14, i32 noundef 2, i32 noundef 0)
  %16 = load i32, ptr @ett_pcep_obj_proc_time, align 4
  %17 = tail call ptr @proto_item_add_subtree(ptr noundef %15, i32 noundef %16)
  %18 = load i32, ptr @hf_pcep_obj_proc_time_flags_reserved, align 4
  %19 = tail call ptr @proto_tree_add_item(ptr noundef %17, i32 noundef %18, ptr noundef %2, i32 noundef %14, i32 noundef 2, i32 noundef 0)
  %20 = load i32, ptr @hf_pcep_obj_proc_time_flags_e, align 4
  %21 = tail call ptr @proto_tree_add_item(ptr noundef %17, i32 noundef %20, ptr noundef %2, i32 noundef %14, i32 noundef 2, i32 noundef 0)
  %22 = load i32, ptr @hf_pcep_obj_proc_time_cur_proc_time, align 4
  %23 = add i32 %3, 4
  %24 = tail call ptr @proto_tree_add_item(ptr noundef %0, i32 noundef %22, ptr noundef %2, i32 noundef %23, i32 noundef 4, i32 noundef 0)
  %25 = load i32, ptr @hf_pcep_obj_proc_time_min_proc_time, align 4
  %26 = add i32 %3, 8
  %27 = tail call ptr @proto_tree_add_item(ptr noundef %0, i32 noundef %25, ptr noundef %2, i32 noundef %26, i32 noundef 4, i32 noundef 0)
  %28 = load i32, ptr @hf_pcep_obj_proc_time_max_proc_time, align 4
  %29 = add i32 %3, 12
  %30 = tail call ptr @proto_tree_add_item(ptr noundef %0, i32 noundef %28, ptr noundef %2, i32 noundef %29, i32 noundef 4, i32 noundef 0)
  %31 = load i32, ptr @hf_pcep_obj_proc_time_ave_proc_time, align 4
  %32 = add i32 %3, 16
  %33 = tail call ptr @proto_tree_add_item(ptr noundef %0, i32 noundef %31, ptr noundef %2, i32 noundef %32, i32 noundef 4, i32 noundef 0)
  %34 = load i32, ptr @hf_pcep_obj_proc_time_var_proc_time, align 4
  %35 = add i32 %3, 20
  %36 = tail call ptr @proto_tree_add_item(ptr noundef %0, i32 noundef %34, ptr noundef %2, i32 noundef %35, i32 noundef 4, i32 noundef 0)
  br label %37

37:                                               ; preds = %10, %8
  ret void
}